; ModuleID = '9/200.c'
source_filename = "9/200.c"
target datalayout = "e-m:e-p270:32:32-p271:32:32-p272:64:64-i64:64-f80:128-n8:16:32:64-S128"
target triple = "x86_64-pc-linux-gnu"

@.str = private unnamed_addr constant [3 x i8] c"%d\00", align 1
@.str.1 = private unnamed_addr constant [6 x i8] c"%s %d\00", align 1
@.str.2 = private unnamed_addr constant [4 x i8] c"%s\0A\00", align 1

; Function Attrs: noinline nounwind uwtable
define dso_local void @main() #0 {
  %1 = alloca i32, align 4
  %2 = alloca i32, align 4
  %3 = alloca i32, align 4
  %4 = alloca i32, align 4
  %5 = alloca i32, align 4
  %6 = alloca [100 x i32], align 16
  %7 = alloca [100 x i32], align 16
  %8 = alloca [100 x i32], align 16
  %9 = alloca [100 x [30 x i8]], align 16
  %10 = alloca [100 x [30 x i8]], align 16
  %11 = alloca [100 x [30 x i8]], align 16
  %12 = alloca [1 x [30 x i8]], align 16
  store i32 0, i32* %3, align 4
  store i32 0, i32* %4, align 4
  %13 = call i32 (i8*, ...) @__isoc99_scanf(i8* getelementptr inbounds ([3 x i8], [3 x i8]* @.str, i64 0, i64 0), i32* %1)
  store i32 0, i32* %2, align 4
  br label %14

14:                                               ; preds = %27, %0
  %15 = load i32, i32* %2, align 4
  %16 = load i32, i32* %1, align 4
  %17 = icmp slt i32 %15, %16
  br i1 %17, label %18, label %30

18:                                               ; preds = %14
  %19 = load i32, i32* %2, align 4
  %20 = sext i32 %19 to i64
  %21 = getelementptr inbounds [100 x [30 x i8]], [100 x [30 x i8]]* %11, i64 0, i64 %20
  %22 = getelementptr inbounds [30 x i8], [30 x i8]* %21, i64 0, i64 0
  %23 = load i32, i32* %2, align 4
  %24 = sext i32 %23 to i64
  %25 = getelementptr inbounds [100 x i32], [100 x i32]* %6, i64 0, i64 %24
  %26 = call i32 (i8*, ...) @__isoc99_scanf(i8* getelementptr inbounds ([6 x i8], [6 x i8]* @.str.1, i64 0, i64 0), i8* %22, i32* %25)
  br label %27

27:                                               ; preds = %18
  %28 = load i32, i32* %2, align 4
  %29 = add nsw i32 %28, 1
  store i32 %29, i32* %2, align 4
  br label %14

30:                                               ; preds = %14
  store i32 0, i32* %2, align 4
  br label %31

31:                                               ; preds = %86, %30
  %32 = load i32, i32* %2, align 4
  %33 = load i32, i32* %1, align 4
  %34 = icmp slt i32 %32, %33
  br i1 %34, label %35, label %89

35:                                               ; preds = %31
  %36 = load i32, i32* %2, align 4
  %37 = sext i32 %36 to i64
  %38 = getelementptr inbounds [100 x i32], [100 x i32]* %6, i64 0, i64 %37
  %39 = load i32, i32* %38, align 4
  %40 = icmp sge i32 %39, 60
  br i1 %40, label %41, label %60

41:                                               ; preds = %35
  %42 = load i32, i32* %3, align 4
  %43 = sext i32 %42 to i64
  %44 = getelementptr inbounds [100 x [30 x i8]], [100 x [30 x i8]]* %9, i64 0, i64 %43
  %45 = getelementptr inbounds [30 x i8], [30 x i8]* %44, i64 0, i64 0
  %46 = load i32, i32* %2, align 4
  %47 = sext i32 %46 to i64
  %48 = getelementptr inbounds [100 x [30 x i8]], [100 x [30 x i8]]* %11, i64 0, i64 %47
  %49 = getelementptr inbounds [30 x i8], [30 x i8]* %48, i64 0, i64 0
  %50 = call i8* @strcpy(i8* %45, i8* %49) #3
  %51 = load i32, i32* %2, align 4
  %52 = sext i32 %51 to i64
  %53 = getelementptr inbounds [100 x i32], [100 x i32]* %6, i64 0, i64 %52
  %54 = load i32, i32* %53, align 4
  %55 = load i32, i32* %3, align 4
  %56 = sext i32 %55 to i64
  %57 = getelementptr inbounds [100 x i32], [100 x i32]* %7, i64 0, i64 %56
  store i32 %54, i32* %57, align 4
  %58 = load i32, i32* %3, align 4
  %59 = add nsw i32 %58, 1
  store i32 %59, i32* %3, align 4
  br label %60

60:                                               ; preds = %41, %35
  %61 = load i32, i32* %2, align 4
  %62 = sext i32 %61 to i64
  %63 = getelementptr inbounds [100 x i32], [100 x i32]* %6, i64 0, i64 %62
  %64 = load i32, i32* %63, align 4
  %65 = icmp slt i32 %64, 60
  br i1 %65, label %66, label %85

66:                                               ; preds = %60
  %67 = load i32, i32* %4, align 4
  %68 = sext i32 %67 to i64
  %69 = getelementptr inbounds [100 x [30 x i8]], [100 x [30 x i8]]* %10, i64 0, i64 %68
  %70 = getelementptr inbounds [30 x i8], [30 x i8]* %69, i64 0, i64 0
  %71 = load i32, i32* %2, align 4
  %72 = sext i32 %71 to i64
  %73 = getelementptr inbounds [100 x [30 x i8]], [100 x [30 x i8]]* %11, i64 0, i64 %72
  %74 = getelementptr inbounds [30 x i8], [30 x i8]* %73, i64 0, i64 0
  %75 = call i8* @strcpy(i8* %70, i8* %74) #3
  %76 = load i32, i32* %2, align 4
  %77 = sext i32 %76 to i64
  %78 = getelementptr inbounds [100 x i32], [100 x i32]* %6, i64 0, i64 %77
  %79 = load i32, i32* %78, align 4
  %80 = load i32, i32* %4, align 4
  %81 = sext i32 %80 to i64
  %82 = getelementptr inbounds [100 x i32], [100 x i32]* %8, i64 0, i64 %81
  store i32 %79, i32* %82, align 4
  %83 = load i32, i32* %4, align 4
  %84 = add nsw i32 %83, 1
  store i32 %84, i32* %4, align 4
  br label %85

85:                                               ; preds = %66, %60
  br label %86

86:                                               ; preds = %85
  %87 = load i32, i32* %2, align 4
  %88 = add nsw i32 %87, 1
  store i32 %88, i32* %2, align 4
  br label %31

89:                                               ; preds = %31
  store i32 0, i32* %4, align 4
  br label %90

90:                                               ; preds = %162, %89
  %91 = load i32, i32* %4, align 4
  %92 = load i32, i32* %3, align 4
  %93 = sub nsw i32 %92, 1
  %94 = icmp slt i32 %91, %93
  br i1 %94, label %95, label %165

95:                                               ; preds = %90
  store i32 0, i32* %2, align 4
  br label %96

96:                                               ; preds = %158, %95
  %97 = load i32, i32* %2, align 4
  %98 = load i32, i32* %3, align 4
  %99 = load i32, i32* %4, align 4
  %100 = sub nsw i32 %98, %99
  %101 = sub nsw i32 %100, 1
  %102 = icmp slt i32 %97, %101
  br i1 %102, label %103, label %161

103:                                              ; preds = %96
  %104 = load i32, i32* %2, align 4
  %105 = sext i32 %104 to i64
  %106 = getelementptr inbounds [100 x i32], [100 x i32]* %7, i64 0, i64 %105
  %107 = load i32, i32* %106, align 4
  %108 = load i32, i32* %2, align 4
  %109 = add nsw i32 %108, 1
  %110 = sext i32 %109 to i64
  %111 = getelementptr inbounds [100 x i32], [100 x i32]* %7, i64 0, i64 %110
  %112 = load i32, i32* %111, align 4
  %113 = icmp slt i32 %107, %112
  br i1 %113, label %114, label %157

114:                                              ; preds = %103
  %115 = load i32, i32* %2, align 4
  %116 = sext i32 %115 to i64
  %117 = getelementptr inbounds [100 x i32], [100 x i32]* %7, i64 0, i64 %116
  %118 = load i32, i32* %117, align 4
  store i32 %118, i32* %5, align 4
  %119 = load i32, i32* %2, align 4
  %120 = add nsw i32 %119, 1
  %121 = sext i32 %120 to i64
  %122 = getelementptr inbounds [100 x i32], [100 x i32]* %7, i64 0, i64 %121
  %123 = load i32, i32* %122, align 4
  %124 = load i32, i32* %2, align 4
  %125 = sext i32 %124 to i64
  %126 = getelementptr inbounds [100 x i32], [100 x i32]* %7, i64 0, i64 %125
  store i32 %123, i32* %126, align 4
  %127 = load i32, i32* %5, align 4
  %128 = load i32, i32* %2, align 4
  %129 = add nsw i32 %128, 1
  %130 = sext i32 %129 to i64
  %131 = getelementptr inbounds [100 x i32], [100 x i32]* %7, i64 0, i64 %130
  store i32 %127, i32* %131, align 4
  %132 = getelementptr inbounds [1 x [30 x i8]], [1 x [30 x i8]]* %12, i64 0, i64 0
  %133 = bitcast [30 x i8]* %132 to i8*
  %134 = load i32, i32* %2, align 4
  %135 = sext i32 %134 to i64
  %136 = getelementptr inbounds [100 x [30 x i8]], [100 x [30 x i8]]* %9, i64 0, i64 %135
  %137 = getelementptr inbounds [30 x i8], [30 x i8]* %136, i64 0, i64 0
  %138 = call i8* @strcpy(i8* %133, i8* %137) #3
  %139 = load i32, i32* %2, align 4
  %140 = sext i32 %139 to i64
  %141 = getelementptr inbounds [100 x [30 x i8]], [100 x [30 x i8]]* %9, i64 0, i64 %140
  %142 = getelementptr inbounds [30 x i8], [30 x i8]* %141, i64 0, i64 0
  %143 = load i32, i32* %2, align 4
  %144 = add nsw i32 %143, 1
  %145 = sext i32 %144 to i64
  %146 = getelementptr inbounds [100 x [30 x i8]], [100 x [30 x i8]]* %9, i64 0, i64 %145
  %147 = getelementptr inbounds [30 x i8], [30 x i8]* %146, i64 0, i64 0
  %148 = call i8* @strcpy(i8* %142, i8* %147) #3
  %149 = load i32, i32* %2, align 4
  %150 = add nsw i32 %149, 1
  %151 = sext i32 %150 to i64
  %152 = getelementptr inbounds [100 x [30 x i8]], [100 x [30 x i8]]* %9, i64 0, i64 %151
  %153 = getelementptr inbounds [30 x i8], [30 x i8]* %152, i64 0, i64 0
  %154 = getelementptr inbounds [1 x [30 x i8]], [1 x [30 x i8]]* %12, i64 0, i64 0
  %155 = bitcast [30 x i8]* %154 to i8*
  %156 = call i8* @strcpy(i8* %153, i8* %155) #3
  br label %157

157:                                              ; preds = %114, %103
  br label %158

158:                                              ; preds = %157
  %159 = load i32, i32* %2, align 4
  %160 = add nsw i32 %159, 1
  store i32 %160, i32* %2, align 4
  br label %96

161:                                              ; preds = %96
  br label %162

162:                                              ; preds = %161
  %163 = load i32, i32* %4, align 4
  %164 = add nsw i32 %163, 1
  store i32 %164, i32* %4, align 4
  br label %90

165:                                              ; preds = %90
  store i32 0, i32* %2, align 4
  br label %166

166:                                              ; preds = %176, %165
  %167 = load i32, i32* %2, align 4
  %168 = load i32, i32* %3, align 4
  %169 = icmp slt i32 %167, %168
  br i1 %169, label %170, label %179

170:                                              ; preds = %166
  %171 = load i32, i32* %2, align 4
  %172 = sext i32 %171 to i64
  %173 = getelementptr inbounds [100 x [30 x i8]], [100 x [30 x i8]]* %9, i64 0, i64 %172
  %174 = getelementptr inbounds [30 x i8], [30 x i8]* %173, i64 0, i64 0
  %175 = call i32 (i8*, ...) @printf(i8* getelementptr inbounds ([4 x i8], [4 x i8]* @.str.2, i64 0, i64 0), i8* %174)
  br label %176

176:                                              ; preds = %170
  %177 = load i32, i32* %2, align 4
  %178 = add nsw i32 %177, 1
  store i32 %178, i32* %2, align 4
  br label %166

179:                                              ; preds = %166
  store i32 0, i32* %2, align 4
  br label %180

180:                                              ; preds = %192, %179
  %181 = load i32, i32* %2, align 4
  %182 = load i32, i32* %1, align 4
  %183 = load i32, i32* %3, align 4
  %184 = sub nsw i32 %182, %183
  %185 = icmp slt i32 %181, %184
  br i1 %185, label %186, label %195

186:                                              ; preds = %180
  %187 = load i32, i32* %2, align 4
  %188 = sext i32 %187 to i64
  %189 = getelementptr inbounds [100 x [30 x i8]], [100 x [30 x i8]]* %10, i64 0, i64 %188
  %190 = getelementptr inbounds [30 x i8], [30 x i8]* %189, i64 0, i64 0
  %191 = call i32 (i8*, ...) @printf(i8* getelementptr inbounds ([4 x i8], [4 x i8]* @.str.2, i64 0, i64 0), i8* %190)
  br label %192

192:                                              ; preds = %186
  %193 = load i32, i32* %2, align 4
  %194 = add nsw i32 %193, 1
  store i32 %194, i32* %2, align 4
  br label %180

195:                                              ; preds = %180
  ret void
}

declare dso_local i32 @__isoc99_scanf(i8*, ...) #1

; Function Attrs: nounwind
declare dso_local i8* @strcpy(i8*, i8*) #2

declare dso_local i32 @printf(i8*, ...) #1


!llvm.module.flags = !{!0}
!llvm.ident = !{!1}

!0 = !{i32 1, !"wchar_size", i32 4}
!1 = !{!"clang version 10.0.0-4ubuntu1 "}
